target datalayout = "e-m:e-p270:32:32-p271:32:32-p272:64:64-i64:64-i128:128-f80:128-n8:16:32:64-S128"
target triple = "x86_64-pc-linux-gnu"

%"struct.google::protobuf::Metadata" = type { ptr, ptr }
%"class.google::protobuf::internal::SymbolBase" = type { i8 }
%"class.google::protobuf::FieldDescriptor" = type { %"class.google::protobuf::internal::SymbolBase", i8, i8, i8, i32, ptr, ptr, ptr, ptr, %union.anon.9, %union.anon.10, ptr, %union.anon.11 }
%union.anon.9 = type { ptr }
%union.anon.10 = type { ptr }
%union.anon.11 = type { i64 }

@_ZN6google8protobuf8internal14WireFormatLite23kMessageSetItemTagsSizeE = external constant i64, align 8

; Function Attrs: mustprogress nounwind uwtable
define linkonce_odr hidden noundef i32 @_ZN6google8protobuf4Bits16Log2FloorNonZeroEj(i32 noundef %0) #9 comdat align 2 {
  %2 = alloca i32, align 4
  store i32 %0, ptr %2, align 4, !tbaa !10
  %3 = load i32, ptr %2, align 4, !tbaa !10
  %4 = call i32 @llvm.ctlz.i32(i32 %3, i1 true)
  %5 = xor i32 31, %4
  ret i32 %5
}

; Function Attrs: inlinehint mustprogress uwtable
define linkonce_odr hidden noundef i64 @_ZN6google8protobuf2io17CodedOutputStream12VarintSize32Ej(i32 noundef %0) #7 comdat align 2 {
  %2 = alloca i32, align 4
  %3 = alloca i32, align 4
  store i32 %0, ptr %2, align 4, !tbaa !10
  call void @llvm.lifetime.start.p0(i64 4, ptr %3) #3
  %4 = load i32, ptr %2, align 4, !tbaa !10
  %5 = or i32 %4, 1
  %6 = call noundef i32 @_ZN6google8protobuf4Bits16Log2FloorNonZeroEj(i32 noundef %5)
  store i32 %6, ptr %3, align 4, !tbaa !10
  %7 = load i32, ptr %3, align 4, !tbaa !10
  %8 = mul i32 %7, 9
  %9 = add i32 %8, 73
  %10 = udiv i32 %9, 64
  %11 = zext i32 %10 to i64
  call void @llvm.lifetime.end.p0(i64 4, ptr %3) #3
  ret i64 %11
}

; Function Attrs: inlinehint mustprogress nounwind uwtable
define linkonce_odr hidden noundef i32 @_ZNK6google8protobuf15FieldDescriptor6numberEv(ptr noundef nonnull align 8 dereferenceable(72) %0) #6 comdat align 2 {
  %2 = alloca ptr, align 8
  store ptr %0, ptr %2, align 8, !tbaa !78
  %3 = load ptr, ptr %2, align 8
  %4 = getelementptr inbounds nuw %"class.google::protobuf::FieldDescriptor", ptr %3, i32 0, i32 4
  %5 = load i32, ptr %4, align 4, !tbaa !253
  ret i32 %5
}

; Function Attrs: mustprogress uwtable
define linkonce_odr hidden noundef ptr @_ZNK6google8protobuf7Message13GetReflectionEv(ptr noundef nonnull align 8 dereferenceable(16) %0) #4 comdat align 2 {
  %2 = alloca ptr, align 8
  %3 = alloca %"struct.google::protobuf::Metadata", align 8
  store ptr %0, ptr %2, align 8, !tbaa !72
  %4 = load ptr, ptr %2, align 8
  call void @llvm.lifetime.start.p0(i64 16, ptr %3) #3
  %5 = load ptr, ptr %4, align 8, !tbaa !81
  %6 = getelementptr inbounds ptr, ptr %5, i64 17
  %7 = load ptr, ptr %6, align 8
  %8 = call { ptr, ptr } %7(ptr noundef nonnull align 8 dereferenceable(16) %4)
  %9 = getelementptr inbounds nuw { ptr, ptr }, ptr %3, i32 0, i32 0
  %10 = extractvalue { ptr, ptr } %8, 0
  store ptr %10, ptr %9, align 8
  %11 = getelementptr inbounds nuw { ptr, ptr }, ptr %3, i32 0, i32 1
  %12 = extractvalue { ptr, ptr } %8, 1
  store ptr %12, ptr %11, align 8
  %13 = getelementptr inbounds nuw %"struct.google::protobuf::Metadata", ptr %3, i32 0, i32 1
  %14 = load ptr, ptr %13, align 8, !tbaa !85
  call void @llvm.lifetime.end.p0(i64 16, ptr %3) #3
  ret ptr %14
}

; Function Attrs: mustprogress uwtable
define hidden noundef i64 @_ZN6google8protobuf8internal10WireFormat22MessageSetItemByteSizeEPKNS0_15FieldDescriptorERKNS0_7MessageE(ptr noundef %0, ptr noundef nonnull align 8 dereferenceable(16) %1) #4 align 2 {
  %3 = alloca ptr, align 8
  %4 = alloca ptr, align 8
  %5 = alloca ptr, align 8
  %6 = alloca i64, align 8
  %7 = alloca ptr, align 8
  %8 = alloca i64, align 8
  store ptr %0, ptr %3, align 8, !tbaa !78
  store ptr %1, ptr %4, align 8, !tbaa !72
  call void @llvm.lifetime.start.p0(i64 8, ptr %5) #3
  %9 = load ptr, ptr %4, align 8, !tbaa !72
  %10 = call noundef ptr @_ZNK6google8protobuf7Message13GetReflectionEv(ptr noundef nonnull align 8 dereferenceable(16) %9)
  store ptr %10, ptr %5, align 8, !tbaa !76
  call void @llvm.lifetime.start.p0(i64 8, ptr %6) #3
  %11 = load i64, ptr @_ZN6google8protobuf8internal14WireFormatLite23kMessageSetItemTagsSizeE, align 8, !tbaa !17
  store i64 %11, ptr %6, align 8, !tbaa !17
  %12 = load ptr, ptr %3, align 8, !tbaa !78
  %13 = call noundef i32 @_ZNK6google8protobuf15FieldDescriptor6numberEv(ptr noundef nonnull align 8 dereferenceable(72) %12)
  %14 = call noundef i64 @_ZN6google8protobuf2io17CodedOutputStream12VarintSize32Ej(i32 noundef %13)
  %15 = load i64, ptr %6, align 8, !tbaa !17
  %16 = add i64 %15, %14
  store i64 %16, ptr %6, align 8, !tbaa !17
  call void @llvm.lifetime.start.p0(i64 8, ptr %7) #3
  %17 = load ptr, ptr %5, align 8, !tbaa !76
  %18 = load ptr, ptr %4, align 8, !tbaa !72
  %19 = load ptr, ptr %3, align 8, !tbaa !78
  %20 = call noundef nonnull align 8 dereferenceable(16) ptr @_ZNK6google8protobuf10Reflection10GetMessageERKNS0_7MessageEPKNS0_15FieldDescriptorEPNS0_14MessageFactoryE(ptr noundef nonnull align 8 dereferenceable(96) %17, ptr noundef nonnull align 8 dereferenceable(16) %18, ptr noundef %19, ptr noundef null)
  store ptr %20, ptr %7, align 8, !tbaa !72
  call void @llvm.lifetime.start.p0(i64 8, ptr %8) #3
  %21 = load ptr, ptr %7, align 8, !tbaa !72
  %22 = load ptr, ptr %21, align 8, !tbaa !81
  %23 = getelementptr inbounds ptr, ptr %22, i64 8
  %24 = load ptr, ptr %23, align 8
  %25 = call noundef i64 %24(ptr noundef nonnull align 8 dereferenceable(16) %21)
  store i64 %25, ptr %8, align 8, !tbaa !17
  %26 = load i64, ptr %8, align 8, !tbaa !17
  %27 = trunc i64 %26 to i32
  %28 = call noundef i64 @_ZN6google8protobuf2io17CodedOutputStream12VarintSize32Ej(i32 noundef %27)
  %29 = load i64, ptr %6, align 8, !tbaa !17
  %30 = add i64 %29, %28
  store i64 %30, ptr %6, align 8, !tbaa !17
  %31 = load i64, ptr %8, align 8, !tbaa !17
  %32 = load i64, ptr %6, align 8, !tbaa !17
  %33 = add i64 %32, %31
  store i64 %33, ptr %6, align 8, !tbaa !17
  %34 = load i64, ptr %6, align 8, !tbaa !17
  call void @llvm.lifetime.end.p0(i64 8, ptr %8) #3
  call void @llvm.lifetime.end.p0(i64 8, ptr %7) #3
  call void @llvm.lifetime.end.p0(i64 8, ptr %6) #3
  call void @llvm.lifetime.end.p0(i64 8, ptr %5) #3
  ret i64 %34
}