; Function Attrs: mustprogress uwtable
define hidden noundef i64 @_ZN6google8protobuf8internal10WireFormat22MessageSetItemByteSizeEPKNS0_15FieldDescriptorERKNS0_7MessageE(ptr noundef %0, ptr noundef nonnull align 8 dereferenceable(16) %1) local_unnamed_addr #3 align 2 {
  %3 = load ptr, ptr %1, align 8, !tbaa !53
  %4 = getelementptr inbounds nuw i8, ptr %3, i64 136
  %5 = load ptr, ptr %4, align 8
  %6 = tail call { ptr, ptr } %5(ptr noundef nonnull align 8 dereferenceable(16) %1)
  %7 = extractvalue { ptr, ptr } %6, 1
  %8 = load i64, ptr @_ZN6google8protobuf8internal14WireFormatLite23kMessageSetItemTagsSizeE, align 8, !tbaa !21
  %9 = getelementptr inbounds nuw i8, ptr %0, i64 4
  %10 = load i32, ptr %9, align 4, !tbaa !188
  %11 = or i32 %10, 1
  %12 = tail call range(i32 0, 33) i32 @llvm.ctlz.i32(i32 %11, i1 true)
  %13 = xor i32 %12, 31
  %14 = mul nuw nsw i32 %13, 9
  %15 = add nuw nsw i32 %14, 73
  %16 = lshr i32 %15, 6
  %17 = zext nneg i32 %16 to i64
  %18 = tail call noundef nonnull align 8 dereferenceable(16) ptr @_ZNK6google8protobuf10Reflection10GetMessageERKNS0_7MessageEPKNS0_15FieldDescriptorEPNS0_14MessageFactoryE(ptr noundef nonnull align 8 dereferenceable(96) %7, ptr noundef nonnull align 8 dereferenceable(16) %1, ptr noundef nonnull %0, ptr noundef null)
  %19 = load ptr, ptr %18, align 8, !tbaa !53
  %20 = getelementptr inbounds nuw i8, ptr %19, i64 64
  %21 = load ptr, ptr %20, align 8
  %22 = tail call noundef i64 %21(ptr noundef nonnull align 8 dereferenceable(16) %18)
  %23 = trunc i64 %22 to i32
  %24 = or i32 %23, 1
  %25 = tail call range(i32 0, 33) i32 @llvm.ctlz.i32(i32 %24, i1 true)
  %26 = xor i32 %25, 31
  %27 = mul nuw nsw i32 %26, 9
  %28 = add nuw nsw i32 %27, 73
  %29 = lshr i32 %28, 6
  %30 = zext nneg i32 %29 to i64
  %31 = add i64 %22, %8
  %32 = add i64 %31, %17
  %33 = add i64 %32, %30
  ret i64 %33
}